target datalayout = "e-m:e-p270:32:32-p271:32:32-p272:64:64-i64:64-i128:128-f80:128-n8:16:32:64-S128"
target triple = "x86_64-pc-linux-gnu"

%struct.dsa_gen_ctx = type { ptr, ptr, i32, i64, i64, ptr, i64, i32, i32, i32, i32, ptr, ptr, ptr, ptr }

@.str = private unnamed_addr constant [57 x i8] c"../openssl/providers/implementations/keymgmt/dsa_kmgmt.c\00", align 1

; Function Attrs: nounwind uwtable
define internal void @dsa_gen_cleanup(ptr noundef %0) #0 {
  %2 = alloca ptr, align 8
  %3 = alloca ptr, align 8
  %4 = alloca i32, align 4
  store ptr %0, ptr %2, align 8, !tbaa !3
  call void @llvm.lifetime.start.p0(i64 8, ptr %3) #7
  %5 = load ptr, ptr %2, align 8, !tbaa !3
  store ptr %5, ptr %3, align 8, !tbaa !13
  %6 = load ptr, ptr %3, align 8, !tbaa !13
  %7 = icmp eq ptr %6, null
  br i1 %7, label %8, label %9

8:                                                ; preds = %1
  store i32 1, ptr %4, align 4
  br label %23

9:                                                ; preds = %1
  %10 = load ptr, ptr %3, align 8, !tbaa !13
  %11 = getelementptr inbounds nuw %struct.dsa_gen_ctx, ptr %10, i32 0, i32 11
  %12 = load ptr, ptr %11, align 8, !tbaa !34
  call void @CRYPTO_free(ptr noundef %12, ptr noundef @.str, i32 noundef 696)
  %13 = load ptr, ptr %3, align 8, !tbaa !13
  %14 = getelementptr inbounds nuw %struct.dsa_gen_ctx, ptr %13, i32 0, i32 12
  %15 = load ptr, ptr %14, align 8, !tbaa !35
  call void @CRYPTO_free(ptr noundef %15, ptr noundef @.str, i32 noundef 697)
  %16 = load ptr, ptr %3, align 8, !tbaa !13
  %17 = getelementptr inbounds nuw %struct.dsa_gen_ctx, ptr %16, i32 0, i32 5
  %18 = load ptr, ptr %17, align 8, !tbaa !41
  %19 = load ptr, ptr %3, align 8, !tbaa !13
  %20 = getelementptr inbounds nuw %struct.dsa_gen_ctx, ptr %19, i32 0, i32 6
  %21 = load i64, ptr %20, align 8, !tbaa !42
  call void @CRYPTO_clear_free(ptr noundef %18, i64 noundef %21, ptr noundef @.str, i32 noundef 698)
  %22 = load ptr, ptr %3, align 8, !tbaa !13
  call void @CRYPTO_free(ptr noundef %22, ptr noundef @.str, i32 noundef 699)
  store i32 0, ptr %4, align 4
  br label %23

23:                                               ; preds = %9, %8
  call void @llvm.lifetime.end.p0(i64 8, ptr %3) #7
  %24 = load i32, ptr %4, align 4
  switch i32 %24, label %26 [
    i32 0, label %25
    i32 1, label %25
  ]

25:                                               ; preds = %23, %23
  ret void

26:                                               ; preds = %23
  unreachable
}

; Function Attrs: nounwind uwtable
define internal ptr @dsa_gen_init(ptr noundef %0, i32 noundef %1, ptr noundef %2) #0 {
  %4 = alloca ptr, align 8
  %5 = alloca ptr, align 8
  %6 = alloca i32, align 4
  %7 = alloca ptr, align 8
  %8 = alloca ptr, align 8
  %9 = alloca ptr, align 8
  %10 = alloca i32, align 4
  store ptr %0, ptr %5, align 8, !tbaa !3
  store i32 %1, ptr %6, align 4, !tbaa !7
  store ptr %2, ptr %7, align 8, !tbaa !9
  call void @llvm.lifetime.start.p0(i64 8, ptr %8) #7
  %11 = load ptr, ptr %5, align 8, !tbaa !3
  %12 = call ptr @ossl_prov_ctx_get0_libctx(ptr noundef %11)
  store ptr %12, ptr %8, align 8, !tbaa !11
  call void @llvm.lifetime.start.p0(i64 8, ptr %9) #7
  store ptr null, ptr %9, align 8, !tbaa !13
  %13 = call i32 @ossl_prov_is_running()
  %14 = icmp ne i32 %13, 0
  br i1 %14, label %15, label %19

15:                                               ; preds = %3
  %16 = load i32, ptr %6, align 4, !tbaa !7
  %17 = and i32 %16, 7
  %18 = icmp eq i32 %17, 0
  br i1 %18, label %19, label %20

19:                                               ; preds = %15, %3
  store ptr null, ptr %4, align 8
  store i32 1, ptr %10, align 4
  br label %51

20:                                               ; preds = %15
  %21 = call noalias ptr @CRYPTO_zalloc(i64 noundef 104, ptr noundef @.str, i32 noundef 417)
  store ptr %21, ptr %9, align 8, !tbaa !13
  %22 = icmp ne ptr %21, null
  br i1 %22, label %23, label %42

23:                                               ; preds = %20
  %24 = load i32, ptr %6, align 4, !tbaa !7
  %25 = load ptr, ptr %9, align 8, !tbaa !13
  %26 = getelementptr inbounds nuw %struct.dsa_gen_ctx, ptr %25, i32 0, i32 2
  store i32 %24, ptr %26, align 8, !tbaa !15
  %27 = load ptr, ptr %8, align 8, !tbaa !11
  %28 = load ptr, ptr %9, align 8, !tbaa !13
  %29 = getelementptr inbounds nuw %struct.dsa_gen_ctx, ptr %28, i32 0, i32 0
  store ptr %27, ptr %29, align 8, !tbaa !20
  %30 = load ptr, ptr %9, align 8, !tbaa !13
  %31 = getelementptr inbounds nuw %struct.dsa_gen_ctx, ptr %30, i32 0, i32 3
  store i64 2048, ptr %31, align 8, !tbaa !21
  %32 = load ptr, ptr %9, align 8, !tbaa !13
  %33 = getelementptr inbounds nuw %struct.dsa_gen_ctx, ptr %32, i32 0, i32 4
  store i64 224, ptr %33, align 8, !tbaa !22
  %34 = load ptr, ptr %9, align 8, !tbaa !13
  %35 = getelementptr inbounds nuw %struct.dsa_gen_ctx, ptr %34, i32 0, i32 8
  store i32 2, ptr %35, align 4, !tbaa !23
  %36 = load ptr, ptr %9, align 8, !tbaa !13
  %37 = getelementptr inbounds nuw %struct.dsa_gen_ctx, ptr %36, i32 0, i32 7
  store i32 -1, ptr %37, align 8, !tbaa !24
  %38 = load ptr, ptr %9, align 8, !tbaa !13
  %39 = getelementptr inbounds nuw %struct.dsa_gen_ctx, ptr %38, i32 0, i32 9
  store i32 -1, ptr %39, align 8, !tbaa !25
  %40 = load ptr, ptr %9, align 8, !tbaa !13
  %41 = getelementptr inbounds nuw %struct.dsa_gen_ctx, ptr %40, i32 0, i32 10
  store i32 0, ptr %41, align 4, !tbaa !26
  br label %42

42:                                               ; preds = %23, %20
  %43 = load ptr, ptr %9, align 8, !tbaa !13
  %44 = load ptr, ptr %7, align 8, !tbaa !9
  %45 = call i32 @dsa_gen_set_params(ptr noundef %43, ptr noundef %44)
  %46 = icmp ne i32 %45, 0
  br i1 %46, label %49, label %47

47:                                               ; preds = %42
  %48 = load ptr, ptr %9, align 8, !tbaa !13
  call void @dsa_gen_cleanup(ptr noundef %48)
  store ptr null, ptr %9, align 8, !tbaa !13
  br label %49

49:                                               ; preds = %47, %42
  %50 = load ptr, ptr %9, align 8, !tbaa !13
  store ptr %50, ptr %4, align 8
  store i32 1, ptr %10, align 4
  br label %51

51:                                               ; preds = %49, %19
  call void @llvm.lifetime.end.p0(i64 8, ptr %9) #7
  call void @llvm.lifetime.end.p0(i64 8, ptr %8) #7
  %52 = load ptr, ptr %4, align 8
  ret ptr %52
}