; Function Attrs: nounwind uwtable
define internal ptr @dsa_gen_init(ptr noundef %0, i32 noundef %1, ptr noundef %2) #0 {
  %4 = tail call ptr @ossl_prov_ctx_get0_libctx(ptr noundef %0) #7
  %5 = tail call i32 @ossl_prov_is_running() #7
  %.not = icmp eq i32 %5, 0
  %6 = and i32 %1, 7
  %7 = icmp eq i32 %6, 0
  %or.cond = or i1 %7, %.not
  br i1 %or.cond, label %dsa_gen_cleanup.exit, label %8

8:                                                ; preds = %3
  %9 = tail call noalias ptr @CRYPTO_zalloc(i64 noundef 104, ptr noundef nonnull @.str, i32 noundef 417) #7
  %.not20 = icmp eq ptr %9, null
  br i1 %.not20, label %dsa_gen_cleanup.exit, label %.split

.split:                                           ; preds = %8
  %10 = getelementptr inbounds nuw i8, ptr %9, i64 16
  store i32 %1, ptr %10, align 8, !tbaa !3
  store ptr %4, ptr %9, align 8, !tbaa !13
  %11 = getelementptr inbounds nuw i8, ptr %9, i64 24
  store i64 2048, ptr %11, align 8, !tbaa !14
  %12 = getelementptr inbounds nuw i8, ptr %9, i64 32
  store i64 224, ptr %12, align 8, !tbaa !15
  %13 = getelementptr inbounds nuw i8, ptr %9, i64 60
  store i32 2, ptr %13, align 4, !tbaa !16
  %14 = getelementptr inbounds nuw i8, ptr %9, i64 56
  store i32 -1, ptr %14, align 8, !tbaa !17
  %15 = getelementptr inbounds nuw i8, ptr %9, i64 64
  store i32 -1, ptr %15, align 8, !tbaa !18
  %16 = getelementptr inbounds nuw i8, ptr %9, i64 68
  store i32 0, ptr %16, align 4, !tbaa !19
  %17 = tail call i32 @dsa_gen_set_params(ptr noundef nonnull %9, ptr noundef %2)
  %.not21 = icmp eq i32 %17, 0
  br i1 %.not21, label %18, label %dsa_gen_cleanup.exit

18:                                               ; preds = %.split
  %19 = getelementptr inbounds nuw i8, ptr %9, i64 72
  %20 = load ptr, ptr %19, align 8, !tbaa !20
  tail call void @CRYPTO_free(ptr noundef %20, ptr noundef nonnull @.str, i32 noundef 696) #7
  %21 = getelementptr inbounds nuw i8, ptr %9, i64 80
  %22 = load ptr, ptr %21, align 8, !tbaa !21
  tail call void @CRYPTO_free(ptr noundef %22, ptr noundef nonnull @.str, i32 noundef 697) #7
  %23 = getelementptr inbounds nuw i8, ptr %9, i64 40
  %24 = load ptr, ptr %23, align 8, !tbaa !22
  %25 = getelementptr inbounds nuw i8, ptr %9, i64 48
  %26 = load i64, ptr %25, align 8, !tbaa !23
  tail call void @CRYPTO_clear_free(ptr noundef %24, i64 noundef %26, ptr noundef nonnull @.str, i32 noundef 698) #7
  tail call void @CRYPTO_free(ptr noundef nonnull %9, ptr noundef nonnull @.str, i32 noundef 699) #7
  br label %dsa_gen_cleanup.exit

dsa_gen_cleanup.exit:                             ; preds = %8, %18, %.split, %3
  %.016 = phi ptr [ null, %3 ], [ %9, %.split ], [ null, %18 ], [ null, %8 ]
  ret ptr %.016
}